; ModuleID = 'bench/php/original/style_element.ll'
source_filename = "bench/php/original/style_element.ll"
target datalayout = "e-m:e-p270:32:32-p271:32:32-p272:64:64-i64:64-i128:128-f80:128-n8:16:32:64-S128"
target triple = "x86_64-pc-linux-gnu"

; Function Attrs: nounwind uwtable
define hidden ptr @lxb_html_style_element_interface_create(ptr nocapture noundef readonly %0) local_unnamed_addr #0 {
  %2 = getelementptr inbounds i8, ptr %0, i64 184
  %3 = load ptr, ptr %2, align 8
  %4 = tail call ptr @lexbor_mraw_calloc(ptr noundef %3, i64 noundef 192) #3
  %5 = icmp eq ptr %4, null
  br i1 %5, label %11, label %6

6:                                                ; preds = %1
  %7 = getelementptr inbounds i8, ptr %0, i64 32
  %8 = load ptr, ptr %7, align 8
  %9 = getelementptr inbounds i8, ptr %4, i64 32
  store ptr %8, ptr %9, align 8
  %10 = getelementptr inbounds i8, ptr %4, i64 88
  store i32 1, ptr %10, align 8
  br label %11

11:                                               ; preds = %1, %6
  ret ptr %4
}

declare ptr @lexbor_mraw_calloc(ptr noundef, i64 noundef) local_unnamed_addr #1

; Function Attrs: nounwind uwtable
define hidden noalias noundef ptr @lxb_html_style_element_interface_destroy(ptr noundef %0) local_unnamed_addr #0 {
  %2 = tail call ptr @lxb_dom_node_interface_destroy(ptr noundef %0) #3
  ret ptr null
}

declare ptr @lxb_dom_node_interface_destroy(ptr noundef) local_unnamed_addr #1

; Function Attrs: mustprogress nofree norecurse nosync nounwind willreturn memory(readwrite, inaccessiblemem: none) uwtable
define hidden i32 @lxb_html_style_element_parse(ptr noundef %0) local_unnamed_addr #2 {
  %2 = getelementptr inbounds i8, ptr %0, i64 32
  %3 = load ptr, ptr %2, align 8
  %4 = getelementptr inbounds i8, ptr %0, i64 64
  %5 = load ptr, ptr %4, align 8
  %6 = icmp eq ptr %5, null
  br i1 %6, label %24, label %7

7:                                                ; preds = %1
  %8 = getelementptr inbounds i8, ptr %5, i64 8
  %9 = load i64, ptr %8, align 8
  %.not = icmp eq i64 %9, 2
  br i1 %.not, label %10, label %24

10:                                               ; preds = %7
  %11 = getelementptr inbounds i8, ptr %0, i64 72
  %12 = load ptr, ptr %11, align 8
  %.not14 = icmp eq ptr %5, %12
  br i1 %.not14, label %13, label %24

13:                                               ; preds = %10
  %14 = getelementptr inbounds i8, ptr %0, i64 184
  %15 = load ptr, ptr %14, align 8
  %16 = icmp eq ptr %15, null
  br i1 %16, label %17, label %22

17:                                               ; preds = %13
  %18 = getelementptr inbounds i8, ptr %3, i64 296
  %19 = load ptr, ptr %18, align 8
  %20 = getelementptr inbounds i8, ptr %19, i64 200
  %21 = load i32, ptr %20, align 8
  br label %24

22:                                               ; preds = %13
  %23 = getelementptr inbounds i8, ptr %15, i64 16
  store ptr %0, ptr %23, align 8
  br label %24

24:                                               ; preds = %1, %7, %10, %22, %17
  %.0 = phi i32 [ %21, %17 ], [ 0, %22 ], [ 0, %10 ], [ 0, %7 ], [ 0, %1 ]
  ret i32 %.0
}

; Function Attrs: nounwind uwtable
define hidden noundef i32 @lxb_html_element_style_remove(ptr nocapture noundef readonly %0) local_unnamed_addr #0 {
  %2 = getelementptr inbounds i8, ptr %0, i64 32
  %3 = load ptr, ptr %2, align 8
  %4 = getelementptr inbounds i8, ptr %0, i64 184
  %5 = load ptr, ptr %4, align 8
  %6 = tail call i32 @lxb_html_document_stylesheet_remove(ptr noundef %3, ptr noundef %5) #3
  ret i32 0
}

declare i32 @lxb_html_document_stylesheet_remove(ptr noundef, ptr noundef) local_unnamed_addr #1


!llvm.module.flags = !{!0, !1, !2, !3}

!0 = !{i32 1, !"wchar_size", i32 4}
!1 = !{i32 8, !"PIC Level", i32 2}
!2 = !{i32 7, !"uwtable", i32 2}
!3 = !{i32 7, !"frame-pointer", i32 2}
